target datalayout = "e-m:e-p270:32:32-p271:32:32-p272:64:64-i64:64-i128:128-f80:128-n8:16:32:64-S128"
target triple = "x86_64-pc-linux-gnu"

%struct.H5D_t = type { %struct.H5O_loc_t, %struct.H5G_name_t, ptr }
%struct.H5O_loc_t = type { ptr, i64, i8 }
%struct.H5G_name_t = type { ptr, ptr, i32 }
%struct.H5D_shared_t = type { i64, i8, i64, ptr, ptr, i64, i64, %struct.H5D_dcpl_cache_t, %struct.H5O_layout_t, i8, i32, [32 x i64], [32 x i64], [32 x i64], %struct.anon.6, %struct.H5D_append_flush_t, ptr, ptr }
%struct.H5D_dcpl_cache_t = type { %struct.H5O_fill_t, %struct.H5O_pline_t, %struct.H5O_efl_t }
%struct.H5O_fill_t = type { %struct.H5O_shared_t, i32, ptr, i64, ptr, i32, i32, i8 }
%struct.H5O_shared_t = type { i32, ptr, i32, %union.anon }
%union.anon = type { %struct.H5O_mesg_loc_t }
%struct.H5O_mesg_loc_t = type { i32, i64 }
%struct.H5O_pline_t = type { %struct.H5O_shared_t, i32, i64, i64, ptr }
%struct.H5O_efl_t = type { i64, i64, i64, ptr }
%struct.H5O_layout_t = type { i32, i32, ptr, %union.anon.0, %struct.H5O_storage_t }
%union.anon.0 = type { %struct.H5O_layout_chunk_t }
%struct.H5O_layout_chunk_t = type { i32, i8, i32, [33 x i32], i32, i32, i64, i64, [33 x i64], [33 x i64], [33 x i64], [33 x i64], %union.anon.1 }
%union.anon.1 = type { %struct.H5O_layout_chunk_earray_t }
%struct.H5O_layout_chunk_earray_t = type { %struct.anon.2, i32, [33 x i32], [33 x i64], [33 x i64] }
%struct.anon.2 = type { i8, i8, i8, i8, i8 }
%struct.H5O_storage_t = type { i32, %union.anon.4 }
%union.anon.4 = type { %struct.H5O_storage_virtual_t }
%struct.H5O_storage_virtual_t = type { %struct.H5HG_t, i64, ptr, i64, [32 x i64], i32, i64, i64, i64, i8 }
%struct.H5HG_t = type { i64, i64 }
%struct.anon.6 = type { %struct.H5D_rdcdc_t, %struct.H5D_rdcc_t }
%struct.H5D_rdcdc_t = type { ptr, i64, i64, i64, i8 }
%struct.H5D_rdcc_t = type { %struct.anon.7, i64, i64, double, ptr, ptr, ptr, i64, i32, %struct.H5D_chunk_cached_t, ptr, ptr, ptr, ptr, [32 x i64], [32 x i64], [32 x i32] }
%struct.anon.7 = type { i32, i32, i32, i32 }
%struct.H5D_chunk_cached_t = type { i8, [33 x i64], i64, i32, i64, i32 }
%struct.H5D_append_flush_t = type { i32, [32 x i64], ptr, ptr }
%struct.H5D_chk_idx_info_t = type { ptr, ptr, ptr, ptr }
%struct.H5O_storage_chunk_t = type { i32, i64, ptr, %union.anon.5 }
%union.anon.5 = type { %struct.H5O_storage_chunk_btree_t }
%struct.H5O_storage_chunk_btree_t = type { i64, ptr }
%struct.H5D_chunk_ops_t = type { i8, ptr, ptr, ptr, ptr, ptr, ptr, ptr, ptr, ptr, ptr, ptr, ptr, ptr, ptr, ptr, ptr, ptr, ptr, ptr }
%struct.H5F_block_t = type { i64, i64 }
%struct.H5D_rdcc_ent_t = type { i8, i8, i8, i32, [33 x i64], i32, i32, %struct.H5F_block_t, i64, ptr, i32, ptr, ptr, ptr, ptr }

@H5D_init_g = external global i8, align 1
@H5_libterm_g = external global i8, align 1
@.str.1 = private unnamed_addr constant [102 x i8] c"generated/home/dtcxzyw/WorkSpace/Projects/compilers/llvm-opt-benchmark/bench/hdf5/hdf5/src/H5Dchunk.c\00", align 1
@H5E_DATASET_g = external global i64, align 8
@H5E_CANTGET_g = external global i64, align 8
@H5E_WRITEERROR_g = external global i64, align 8
@H5E_IO_g = external global i64, align 8
@.str.20 = private unnamed_addr constant [36 x i8] c"cannot flush indexed storage buffer\00", align 1
@.str.21 = private unnamed_addr constant [58 x i8] c"unable to retrieve allocated chunk information from index\00", align 1
@__func__.H5D__get_num_chunks = private unnamed_addr constant [20 x i8] c"H5D__get_num_chunks\00", align 1

; Function Attrs: nounwind uwtable
define i32 @H5D__get_num_chunks(ptr noundef %0, ptr noundef %1, ptr noundef %2) #0 {
  %4 = alloca ptr, align 8
  %5 = alloca ptr, align 8
  %6 = alloca ptr, align 8
  %7 = alloca %struct.H5D_chk_idx_info_t, align 8
  %8 = alloca i64, align 8
  %9 = alloca ptr, align 8
  %10 = alloca ptr, align 8
  %11 = alloca i32, align 4
  %12 = alloca i64, align 8
  %13 = alloca i8, align 1
  store ptr %0, ptr %4, align 8, !tbaa !8
  store ptr %1, ptr %5, align 8, !tbaa !161
  store ptr %2, ptr %6, align 8, !tbaa !152
  call void @llvm.lifetime.start.p0(i64 32, ptr %7) #10
  call void @llvm.lifetime.start.p0(i64 8, ptr %8) #10
  store i64 0, ptr %8, align 8, !tbaa !24
  call void @llvm.lifetime.start.p0(i64 8, ptr %9) #10
  call void @llvm.lifetime.start.p0(i64 8, ptr %10) #10
  store ptr null, ptr %10, align 8, !tbaa !54
  call void @llvm.lifetime.start.p0(i64 4, ptr %11) #10
  store i32 0, ptr %11, align 4, !tbaa !10
  call void @llvm.lifetime.start.p0(i64 8, ptr %12) #10
  store i64 -1, ptr %12, align 8, !tbaa !24
  call void @llvm.lifetime.start.p0(i64 1, ptr %13) #10
  store i8 0, ptr %13, align 1, !tbaa !12
  %14 = load ptr, ptr %4, align 8, !tbaa !8
  %15 = getelementptr inbounds nuw %struct.H5D_t, ptr %14, i32 0, i32 0
  %16 = getelementptr inbounds nuw %struct.H5O_loc_t, ptr %15, i32 0, i32 1
  %17 = load i64, ptr %16, align 8, !tbaa !78
  call void @H5AC_tag(i64 noundef %17, ptr noundef %12)
  %18 = load i8, ptr @H5D_init_g, align 1, !tbaa !12, !range !14, !noundef !15
  %19 = trunc i8 %18 to i1
  br i1 %19, label %24, label %20

20:                                               ; preds = %3
  %21 = load i8, ptr @H5_libterm_g, align 1, !tbaa !12, !range !14, !noundef !15
  %22 = trunc i8 %21 to i1
  %23 = xor i1 %22, true
  br label %24

24:                                               ; preds = %20, %3
  %25 = phi i1 [ true, %3 ], [ %23, %20 ]
  %26 = xor i1 %25, true
  %27 = xor i1 %26, true
  %28 = zext i1 %27 to i32
  %29 = sext i32 %28 to i64
  %30 = call i64 @llvm.expect.i64(i64 %29, i64 1)
  %31 = icmp ne i64 %30, 0
  br i1 %31, label %32, label %142

32:                                               ; preds = %24
  %33 = load ptr, ptr %4, align 8, !tbaa !8
  %34 = getelementptr inbounds nuw %struct.H5D_t, ptr %33, i32 0, i32 2
  %35 = load ptr, ptr %34, align 8, !tbaa !16
  %36 = getelementptr inbounds nuw %struct.H5D_shared_t, ptr %35, i32 0, i32 14
  %37 = getelementptr inbounds nuw %struct.anon.6, ptr %36, i32 0, i32 1
  store ptr %37, ptr %10, align 8, !tbaa !54
  %38 = load ptr, ptr %10, align 8, !tbaa !54
  %39 = getelementptr inbounds nuw %struct.H5D_rdcc_t, ptr %38, i32 0, i32 4
  %40 = load ptr, ptr %39, align 8, !tbaa !182
  store ptr %40, ptr %9, align 8, !tbaa !183
  br label %41

41:                                               ; preds = %69, %32
  %42 = load ptr, ptr %9, align 8, !tbaa !183
  %43 = icmp ne ptr %42, null
  br i1 %43, label %44, label %73

44:                                               ; preds = %41
  %45 = load ptr, ptr %4, align 8, !tbaa !8
  %46 = load ptr, ptr %9, align 8, !tbaa !183
  %47 = call i32 @H5D__chunk_flush_entry(ptr noundef %45, ptr noundef %46, i1 noundef zeroext false)
  %48 = icmp slt i32 %47, 0
  br i1 %48, label %49, label %68

49:                                               ; preds = %44
  br label %50

50:                                               ; preds = %49
  br label %51

51:                                               ; preds = %50
  br label %52

52:                                               ; preds = %51
  %53 = load i64, ptr @H5E_IO_g, align 8, !tbaa !24
  %54 = load i64, ptr @H5E_WRITEERROR_g, align 8, !tbaa !24
  %55 = call i32 (ptr, ptr, i32, i64, i64, ptr, ...) @H5E_printf_stack(ptr noundef @.str.1, ptr noundef @__func__.H5D__get_num_chunks, i32 noundef 7831, i64 noundef %53, i64 noundef %54, ptr noundef @.str.20)
  br label %56

56:                                               ; preds = %52
  br label %57

57:                                               ; preds = %56
  store i8 1, ptr %13, align 1, !tbaa !12
  %58 = load i8, ptr %13, align 1, !tbaa !12, !range !14, !noundef !15
  %59 = trunc i8 %58 to i1
  %60 = zext i1 %59 to i8
  store i8 %60, ptr %13, align 1, !tbaa !12
  br label %61

61:                                               ; preds = %57
  br label %62

62:                                               ; preds = %61
  br label %63

63:                                               ; preds = %62
  store i32 -1, ptr %11, align 4, !tbaa !10
  br label %141

64:                                               ; No predecessors!
  br label %65

65:                                               ; preds = %64
  br label %66

66:                                               ; preds = %65
  br label %67

67:                                               ; preds = %66
  br label %68

68:                                               ; preds = %67, %44
  br label %69

69:                                               ; preds = %68
  %70 = load ptr, ptr %9, align 8, !tbaa !183
  %71 = getelementptr inbounds nuw %struct.H5D_rdcc_ent_t, ptr %70, i32 0, i32 11
  %72 = load ptr, ptr %71, align 8, !tbaa !184
  store ptr %72, ptr %9, align 8, !tbaa !183
  br label %41, !llvm.loop !396

73:                                               ; preds = %41
  %74 = load ptr, ptr %4, align 8, !tbaa !8
  %75 = getelementptr inbounds nuw %struct.H5D_t, ptr %74, i32 0, i32 0
  %76 = getelementptr inbounds nuw %struct.H5O_loc_t, ptr %75, i32 0, i32 0
  %77 = load ptr, ptr %76, align 8, !tbaa !172
  %78 = getelementptr inbounds nuw %struct.H5D_chk_idx_info_t, ptr %7, i32 0, i32 0
  store ptr %77, ptr %78, align 8, !tbaa !65
  %79 = load ptr, ptr %4, align 8, !tbaa !8
  %80 = getelementptr inbounds nuw %struct.H5D_t, ptr %79, i32 0, i32 2
  %81 = load ptr, ptr %80, align 8, !tbaa !16
  %82 = getelementptr inbounds nuw %struct.H5D_shared_t, ptr %81, i32 0, i32 7
  %83 = getelementptr inbounds nuw %struct.H5D_dcpl_cache_t, ptr %82, i32 0, i32 1
  %84 = getelementptr inbounds nuw %struct.H5D_chk_idx_info_t, ptr %7, i32 0, i32 1
  store ptr %83, ptr %84, align 8, !tbaa !69
  %85 = load ptr, ptr %4, align 8, !tbaa !8
  %86 = getelementptr inbounds nuw %struct.H5D_t, ptr %85, i32 0, i32 2
  %87 = load ptr, ptr %86, align 8, !tbaa !16
  %88 = getelementptr inbounds nuw %struct.H5D_shared_t, ptr %87, i32 0, i32 8
  %89 = getelementptr inbounds nuw %struct.H5O_layout_t, ptr %88, i32 0, i32 3
  %90 = getelementptr inbounds nuw %struct.H5D_chk_idx_info_t, ptr %7, i32 0, i32 2
  store ptr %89, ptr %90, align 8, !tbaa !70
  %91 = load ptr, ptr %4, align 8, !tbaa !8
  %92 = getelementptr inbounds nuw %struct.H5D_t, ptr %91, i32 0, i32 2
  %93 = load ptr, ptr %92, align 8, !tbaa !16
  %94 = getelementptr inbounds nuw %struct.H5D_shared_t, ptr %93, i32 0, i32 8
  %95 = getelementptr inbounds nuw %struct.H5O_layout_t, ptr %94, i32 0, i32 4
  %96 = getelementptr inbounds nuw %struct.H5O_storage_t, ptr %95, i32 0, i32 1
  %97 = getelementptr inbounds nuw %struct.H5D_chk_idx_info_t, ptr %7, i32 0, i32 3
  store ptr %96, ptr %97, align 8, !tbaa !71
  %98 = getelementptr inbounds nuw %struct.H5D_chk_idx_info_t, ptr %7, i32 0, i32 3
  %99 = load ptr, ptr %98, align 8, !tbaa !71
  %100 = getelementptr inbounds nuw %struct.H5O_storage_chunk_t, ptr %99, i32 0, i32 1
  %101 = load i64, ptr %100, align 8, !tbaa !395
  %102 = icmp ne i64 %101, -1
  br i1 %102, label %105, label %103

103:                                              ; preds = %73
  %104 = load ptr, ptr %6, align 8, !tbaa !152
  store i64 0, ptr %104, align 8, !tbaa !24
  br label %140

105:                                              ; preds = %73
  %106 = load ptr, ptr %4, align 8, !tbaa !8
  %107 = getelementptr inbounds nuw %struct.H5D_t, ptr %106, i32 0, i32 2
  %108 = load ptr, ptr %107, align 8, !tbaa !16
  %109 = getelementptr inbounds nuw %struct.H5D_shared_t, ptr %108, i32 0, i32 8
  %110 = getelementptr inbounds nuw %struct.H5O_layout_t, ptr %109, i32 0, i32 4
  %111 = getelementptr inbounds nuw %struct.H5O_storage_t, ptr %110, i32 0, i32 1
  %112 = getelementptr inbounds nuw %struct.H5O_storage_chunk_t, ptr %111, i32 0, i32 2
  %113 = load ptr, ptr %112, align 8, !tbaa !23
  %114 = getelementptr inbounds nuw %struct.H5D_chunk_ops_t, ptr %113, i32 0, i32 11
  %115 = load ptr, ptr %114, align 8, !tbaa !257
  %116 = call i32 %115(ptr noundef %7, ptr noundef @H5D__get_num_chunks_cb, ptr noundef %8)
  %117 = icmp slt i32 %116, 0
  br i1 %117, label %118, label %137

118:                                              ; preds = %105
  br label %119

119:                                              ; preds = %118
  br label %120

120:                                              ; preds = %119
  br label %121

121:                                              ; preds = %120
  %122 = load i64, ptr @H5E_DATASET_g, align 8, !tbaa !24
  %123 = load i64, ptr @H5E_CANTGET_g, align 8, !tbaa !24
  %124 = call i32 (ptr, ptr, i32, i64, i64, ptr, ...) @H5E_printf_stack(ptr noundef @.str.1, ptr noundef @__func__.H5D__get_num_chunks, i32 noundef 7847, i64 noundef %122, i64 noundef %123, ptr noundef @.str.21)
  br label %125

125:                                              ; preds = %121
  br label %126

126:                                              ; preds = %125
  store i8 1, ptr %13, align 1, !tbaa !12
  %127 = load i8, ptr %13, align 1, !tbaa !12, !range !14, !noundef !15
  %128 = trunc i8 %127 to i1
  %129 = zext i1 %128 to i8
  store i8 %129, ptr %13, align 1, !tbaa !12
  br label %130

130:                                              ; preds = %126
  br label %131

131:                                              ; preds = %130
  br label %132

132:                                              ; preds = %131
  store i32 -1, ptr %11, align 4, !tbaa !10
  br label %141

133:                                              ; No predecessors!
  br label %134

134:                                              ; preds = %133
  br label %135

135:                                              ; preds = %134
  br label %136

136:                                              ; preds = %135
  br label %137

137:                                              ; preds = %136, %105
  %138 = load i64, ptr %8, align 8, !tbaa !24
  %139 = load ptr, ptr %6, align 8, !tbaa !152
  store i64 %138, ptr %139, align 8, !tbaa !24
  br label %140

140:                                              ; preds = %137, %103
  br label %141

141:                                              ; preds = %140, %132, %63
  br label %142

142:                                              ; preds = %141, %24
  %143 = load i64, ptr %12, align 8, !tbaa !24
  call void @H5AC_tag(i64 noundef %143, ptr noundef null)
  %144 = load i32, ptr %11, align 4, !tbaa !10
  call void @llvm.lifetime.end.p0(i64 1, ptr %13) #10
  call void @llvm.lifetime.end.p0(i64 8, ptr %12) #10
  call void @llvm.lifetime.end.p0(i64 4, ptr %11) #10
  call void @llvm.lifetime.end.p0(i64 8, ptr %10) #10
  call void @llvm.lifetime.end.p0(i64 8, ptr %9) #10
  call void @llvm.lifetime.end.p0(i64 8, ptr %8) #10
  call void @llvm.lifetime.end.p0(i64 32, ptr %7) #10
  ret i32 %144
}