; Function Attrs: nounwind uwtable
define range(i32 -1, 1) i32 @H5D__get_num_chunks(ptr noundef %0, ptr noundef readnone captures(none) %1, ptr noundef writeonly captures(none) %2) local_unnamed_addr #0 {
  %4 = alloca %struct.H5D_chk_idx_info_t, align 8
  %5 = alloca i64, align 8
  %6 = alloca i64, align 8
  call void @llvm.lifetime.start.p0(i64 32, ptr nonnull %4) #15
  call void @llvm.lifetime.start.p0(i64 8, ptr nonnull %5) #15
  store i64 0, ptr %5, align 8, !tbaa !21
  call void @llvm.lifetime.start.p0(i64 8, ptr nonnull %6) #15
  store i64 -1, ptr %6, align 8, !tbaa !21
  %7 = getelementptr inbounds nuw i8, ptr %0, i64 8
  %8 = load i64, ptr %7, align 8, !tbaa !74
  call void @H5AC_tag(i64 noundef %8, ptr noundef nonnull %6) #15
  %9 = load i8, ptr @H5D_init_g, align 1, !tbaa !3, !range !7, !noundef !8
  %10 = trunc nuw i8 %9 to i1
  %11 = load i8, ptr @H5_libterm_g, align 1, !range !7
  %12 = trunc nuw i8 %11 to i1
  %13 = xor i1 %12, true
  %14 = select i1 %10, i1 true, i1 %13
  br i1 %14, label %15, label %51, !prof !9

15:                                               ; preds = %3
  %16 = getelementptr inbounds nuw i8, ptr %0, i64 48
  %17 = load ptr, ptr %16, align 8, !tbaa !10
  %18 = getelementptr inbounds nuw i8, ptr %17, i64 3360
  %.01618 = load ptr, ptr %18, align 8, !tbaa !193
  %.not19 = icmp eq ptr %.01618, null
  br i1 %.not19, label %._crit_edge, label %.lr.ph

19:                                               ; preds = %.lr.ph
  %20 = getelementptr inbounds nuw i8, ptr %.01620, i64 320
  %.016 = load ptr, ptr %20, align 8, !tbaa !193
  %.not = icmp eq ptr %.016, null
  br i1 %.not, label %._crit_edge.loopexit, label %.lr.ph, !llvm.loop !371

.lr.ph:                                           ; preds = %15, %19
  %.01620 = phi ptr [ %.016, %19 ], [ %.01618, %15 ]
  %21 = call fastcc i32 @H5D__chunk_flush_entry(ptr noundef %0, ptr noundef nonnull %.01620, i1 noundef zeroext false)
  %22 = icmp slt i32 %21, 0
  br i1 %22, label %23, label %19

23:                                               ; preds = %.lr.ph
  %24 = load i64, ptr @H5E_IO_g, align 8, !tbaa !21
  %25 = load i64, ptr @H5E_WRITEERROR_g, align 8, !tbaa !21
  %26 = call i32 (ptr, ptr, i32, i64, i64, ptr, ...) @H5E_printf_stack(ptr noundef nonnull @.str.1, ptr noundef nonnull @__func__.H5D__get_num_chunks, i32 noundef 7831, i64 noundef %24, i64 noundef %25, ptr noundef nonnull @.str.20) #15
  br label %51

._crit_edge.loopexit:                             ; preds = %19
  %.pre = load ptr, ptr %16, align 8, !tbaa !10
  br label %._crit_edge

._crit_edge:                                      ; preds = %._crit_edge.loopexit, %15
  %27 = phi ptr [ %.pre, %._crit_edge.loopexit ], [ %17, %15 ]
  %28 = load ptr, ptr %0, align 8, !tbaa !186
  store ptr %28, ptr %4, align 8, !tbaa !64
  %29 = getelementptr inbounds nuw i8, ptr %27, i64 144
  %30 = getelementptr inbounds nuw i8, ptr %4, i64 8
  store ptr %29, ptr %30, align 8, !tbaa !69
  %31 = getelementptr inbounds nuw i8, ptr %27, i64 264
  %32 = getelementptr inbounds nuw i8, ptr %4, i64 16
  store ptr %31, ptr %32, align 8, !tbaa !70
  %33 = getelementptr inbounds nuw i8, ptr %27, i64 2168
  %34 = getelementptr inbounds nuw i8, ptr %4, i64 24
  store ptr %33, ptr %34, align 8, !tbaa !71
  %35 = getelementptr inbounds nuw i8, ptr %27, i64 2176
  %36 = load i64, ptr %35, align 8, !tbaa !370
  %.not17 = icmp eq i64 %36, -1
  br i1 %.not17, label %37, label %38

37:                                               ; preds = %._crit_edge
  store i64 0, ptr %2, align 8, !tbaa !21
  br label %51

38:                                               ; preds = %._crit_edge
  %39 = getelementptr inbounds nuw i8, ptr %27, i64 2184
  %40 = load ptr, ptr %39, align 8, !tbaa !20
  %41 = getelementptr inbounds nuw i8, ptr %40, i64 88
  %42 = load ptr, ptr %41, align 8, !tbaa !251
  %43 = call i32 %42(ptr noundef nonnull %4, ptr noundef nonnull @H5D__get_num_chunks_cb, ptr noundef nonnull %5) #15
  %44 = icmp slt i32 %43, 0
  br i1 %44, label %45, label %49

45:                                               ; preds = %38
  %46 = load i64, ptr @H5E_DATASET_g, align 8, !tbaa !21
  %47 = load i64, ptr @H5E_CANTGET_g, align 8, !tbaa !21
  %48 = call i32 (ptr, ptr, i32, i64, i64, ptr, ...) @H5E_printf_stack(ptr noundef nonnull @.str.1, ptr noundef nonnull @__func__.H5D__get_num_chunks, i32 noundef 7847, i64 noundef %46, i64 noundef %47, ptr noundef nonnull @.str.21) #15
  br label %51

49:                                               ; preds = %38
  %50 = load i64, ptr %5, align 8, !tbaa !21
  store i64 %50, ptr %2, align 8, !tbaa !21
  br label %51

51:                                               ; preds = %23, %45, %49, %37, %3
  %.0 = phi i32 [ -1, %23 ], [ -1, %45 ], [ 0, %49 ], [ 0, %37 ], [ 0, %3 ]
  %52 = load i64, ptr %6, align 8, !tbaa !21
  call void @H5AC_tag(i64 noundef %52, ptr noundef null) #15
  call void @llvm.lifetime.end.p0(i64 8, ptr nonnull %6) #15
  call void @llvm.lifetime.end.p0(i64 8, ptr nonnull %5) #15
  call void @llvm.lifetime.end.p0(i64 32, ptr nonnull %4) #15
  ret i32 %.0
}